@sdk

_ZN2nn4init12GetAllocatorEv

_ZN2nn2oe16GetOperationModeEv

_ZN2nn2os13GetSystemTickEv
_ZN2nn2os17ConvertToTimeSpanENS0_4TickE

_ZN2nn3hid13GetNpadStatesEPNS0_16NpadFullKeyStateEiRKj
_ZN2nn3hid13GetNpadStatesEPNS0_17NpadHandheldStateEiRKj
_ZN2nn3hid13GetNpadStatesEPNS0_16NpadJoyDualStateEiRKj
_ZN2nn3hid13GetNpadStatesEPNS0_16NpadJoyLeftStateEiRKj
_ZN2nn3hid13GetNpadStatesEPNS0_17NpadJoyRightStateEiRKj
_ZN2nn3hid15GetNpadStyleSetERKj
_ZN2nn3hid18InitializeKeyboardEv
_ZN2nn3hid15InitializeMouseEv
_ZN2nn3hid16GetKeyboardStateEPNS0_13KeyboardStateE
_ZN2nn3hid13GetMouseStateEPNS0_10MouseStateE
_ZN2nn3hid19GetTouchScreenStateILm1EEEvPNS0_16TouchScreenStateIXT_EEE
_ZN2nn3hid12GetNpadStateEPNS0_16NpadFullKeyStateERKj
_ZN2nn3hid12GetNpadStateEPNS0_16NpadJoyDualStateERKj
_ZN2nn3hid12GetNpadStateEPNS0_16NpadJoyLeftStateERKj
_ZN2nn3hid12GetNpadStateEPNS0_17NpadHandheldStateERKj
_ZN2nn3hid12GetNpadStateEPNS0_17NpadJoyRightStateERKj

_ZN2nn3hid6detail13GetNpadStatesEPiPNS0_16NpadFullKeyStateEiRKj
_ZN2nn3hid6detail13GetNpadStatesEPiPNS0_17NpadHandheldStateEiRKj
_ZN2nn3hid6detail13GetNpadStatesEPiPNS0_16NpadJoyDualStateEiRKj
_ZN2nn3hid6detail13GetNpadStatesEPiPNS0_16NpadJoyLeftStateEiRKj
_ZN2nn3hid6detail13GetNpadStatesEPiPNS0_17NpadJoyRightStateEiRKj


_ZN2nn3mem17StandardAllocator8AllocateEm
_ZN2nn3mem17StandardAllocator4FreeEPv
_ZN2nn3mem17StandardAllocator10ReallocateEPvm

_ZN2nn2fs12GetEntryTypeEPNS0_18DirectoryEntryTypeEPKc
_ZN2nn2fs10CreateFileEPKcl
_ZN2nn2fs8OpenFileEPNS0_10FileHandleEPKci
_ZN2nn2fs9WriteFileENS0_10FileHandleElPKvmRKNS0_11WriteOptionE
_ZN2nn2fs9CloseFileENS0_10FileHandleE
_ZN2nn2fs10DeleteFileEPKc
_ZN2nn2fs19MountSdCardForDebugEPKc
_ZN2nn2fs11GetFileSizeEPlNS0_10FileHandleE
_ZN2nn2fs8ReadFileENS0_10FileHandleElPvm
